target datalayout = "e-m:e-p270:32:32-p271:32:32-p272:64:64-i64:64-i128:128-f80:128-n8:16:32:64-S128"
target triple = "x86_64-pc-linux-gnu"

; Function Attrs: mustprogress nounwind uwtable
define ptr @u_skipWhitespace(ptr noundef %0) #0 {
  %2 = alloca ptr, align 8
  store ptr %0, ptr %2, align 8, !tbaa !3
  br label %3

3:                                                ; preds = %25, %1
  %4 = load ptr, ptr %2, align 8, !tbaa !3
  %5 = load i8, ptr %4, align 1, !tbaa !8
  %6 = sext i8 %5 to i32
  %7 = icmp eq i32 %6, 32
  br i1 %7, label %23, label %8

8:                                                ; preds = %3
  %9 = load ptr, ptr %2, align 8, !tbaa !3
  %10 = load i8, ptr %9, align 1, !tbaa !8
  %11 = sext i8 %10 to i32
  %12 = icmp eq i32 %11, 9
  br i1 %12, label %23, label %13

13:                                               ; preds = %8
  %14 = load ptr, ptr %2, align 8, !tbaa !3
  %15 = load i8, ptr %14, align 1, !tbaa !8
  %16 = sext i8 %15 to i32
  %17 = icmp eq i32 %16, 13
  br i1 %17, label %23, label %18

18:                                               ; preds = %13
  %19 = load ptr, ptr %2, align 8, !tbaa !3
  %20 = load i8, ptr %19, align 1, !tbaa !8
  %21 = sext i8 %20 to i32
  %22 = icmp eq i32 %21, 10
  br label %23

23:                                               ; preds = %18, %13, %8, %3
  %24 = phi i1 [ true, %13 ], [ true, %8 ], [ true, %3 ], [ %22, %18 ]
  br i1 %24, label %25, label %28

25:                                               ; preds = %23
  %26 = load ptr, ptr %2, align 8, !tbaa !3
  %27 = getelementptr inbounds nuw i8, ptr %26, i32 1
  store ptr %27, ptr %2, align 8, !tbaa !3
  br label %3, !llvm.loop !9

28:                                               ; preds = %23
  %29 = load ptr, ptr %2, align 8, !tbaa !3
  ret ptr %29
}

; Function Attrs: inlinehint mustprogress nounwind uwtable
define internal noundef signext i8 @_ZL9U_FAILURE10UErrorCode(i32 noundef %0) #4 {
  %2 = alloca i32, align 4
  store i32 %0, ptr %2, align 4, !tbaa !18
  %3 = load i32, ptr %2, align 4, !tbaa !18
  %4 = icmp sgt i32 %3, 0
  %5 = zext i1 %4 to i8
  ret i8 %5
}

; Function Attrs: mustprogress uwtable
define i32 @u_parseString(ptr noundef %0, ptr noundef %1, i32 noundef %2, ptr noundef %3, ptr noundef %4) #3 {
  %6 = alloca i32, align 4
  %7 = alloca ptr, align 8
  %8 = alloca ptr, align 8
  %9 = alloca i32, align 4
  %10 = alloca ptr, align 8
  %11 = alloca ptr, align 8
  %12 = alloca ptr, align 8
  %13 = alloca i32, align 4
  %14 = alloca i32, align 4
  %15 = alloca i32, align 4
  store ptr %0, ptr %7, align 8, !tbaa !3
  store ptr %1, ptr %8, align 8, !tbaa !29
  store i32 %2, ptr %9, align 4, !tbaa !15
  store ptr %3, ptr %10, align 8, !tbaa !26
  store ptr %4, ptr %11, align 8, !tbaa !17
  call void @llvm.lifetime.start.p0(i64 8, ptr %12) #7
  call void @llvm.lifetime.start.p0(i64 4, ptr %13) #7
  call void @llvm.lifetime.start.p0(i64 4, ptr %14) #7
  %16 = load ptr, ptr %11, align 8, !tbaa !17
  %17 = load i32, ptr %16, align 4, !tbaa !18
  %18 = call noundef signext i8 @_ZL9U_FAILURE10UErrorCode(i32 noundef %17)
  %19 = icmp ne i8 %18, 0
  br i1 %19, label %20, label %21

20:                                               ; preds = %5
  store i32 0, ptr %6, align 4
  store i32 1, ptr %15, align 4
  br label %171

21:                                               ; preds = %5
  %22 = load ptr, ptr %7, align 8, !tbaa !3
  %23 = icmp eq ptr %22, null
  br i1 %23, label %33, label %24

24:                                               ; preds = %21
  %25 = load i32, ptr %9, align 4, !tbaa !15
  %26 = icmp slt i32 %25, 0
  br i1 %26, label %33, label %27

27:                                               ; preds = %24
  %28 = load i32, ptr %9, align 4, !tbaa !15
  %29 = icmp sgt i32 %28, 0
  br i1 %29, label %30, label %35

30:                                               ; preds = %27
  %31 = load ptr, ptr %8, align 8, !tbaa !29
  %32 = icmp eq ptr %31, null
  br i1 %32, label %33, label %35

33:                                               ; preds = %30, %24, %21
  %34 = load ptr, ptr %11, align 8, !tbaa !17
  store i32 1, ptr %34, align 4, !tbaa !18
  store i32 0, ptr %6, align 4
  store i32 1, ptr %15, align 4
  br label %171

35:                                               ; preds = %30, %27
  %36 = load ptr, ptr %10, align 8, !tbaa !26
  %37 = icmp ne ptr %36, null
  br i1 %37, label %38, label %40

38:                                               ; preds = %35
  %39 = load ptr, ptr %10, align 8, !tbaa !26
  store i32 -1, ptr %39, align 4, !tbaa !15
  br label %40

40:                                               ; preds = %38, %35
  store i32 0, ptr %14, align 4, !tbaa !15
  br label %41

41:                                               ; preds = %169, %40
  %42 = load ptr, ptr %7, align 8, !tbaa !3
  %43 = call ptr @u_skipWhitespace(ptr noundef %42)
  store ptr %43, ptr %7, align 8, !tbaa !3
  %44 = load ptr, ptr %7, align 8, !tbaa !3
  %45 = load i8, ptr %44, align 1, !tbaa !8
  %46 = sext i8 %45 to i32
  %47 = icmp eq i32 %46, 59
  br i1 %47, label %53, label %48

48:                                               ; preds = %41
  %49 = load ptr, ptr %7, align 8, !tbaa !3
  %50 = load i8, ptr %49, align 1, !tbaa !8
  %51 = sext i8 %50 to i32
  %52 = icmp eq i32 %51, 0
  br i1 %52, label %53, label %73

53:                                               ; preds = %48, %41
  %54 = load i32, ptr %14, align 4, !tbaa !15
  %55 = load i32, ptr %9, align 4, !tbaa !15
  %56 = icmp slt i32 %54, %55
  br i1 %56, label %57, label %62

57:                                               ; preds = %53
  %58 = load ptr, ptr %8, align 8, !tbaa !29
  %59 = load i32, ptr %14, align 4, !tbaa !15
  %60 = sext i32 %59 to i64
  %61 = getelementptr inbounds i16, ptr %58, i64 %60
  store i16 0, ptr %61, align 2, !tbaa !31
  br label %71

62:                                               ; preds = %53
  %63 = load i32, ptr %14, align 4, !tbaa !15
  %64 = load i32, ptr %9, align 4, !tbaa !15
  %65 = icmp eq i32 %63, %64
  br i1 %65, label %66, label %68

66:                                               ; preds = %62
  %67 = load ptr, ptr %11, align 8, !tbaa !17
  store i32 -124, ptr %67, align 4, !tbaa !18
  br label %70

68:                                               ; preds = %62
  %69 = load ptr, ptr %11, align 8, !tbaa !17
  store i32 15, ptr %69, align 4, !tbaa !18
  br label %70

70:                                               ; preds = %68, %66
  br label %71

71:                                               ; preds = %70, %57
  %72 = load i32, ptr %14, align 4, !tbaa !15
  store i32 %72, ptr %6, align 4
  store i32 1, ptr %15, align 4
  br label %171

73:                                               ; preds = %48
  %74 = load ptr, ptr %7, align 8, !tbaa !3
  %75 = call i64 @strtoul(ptr noundef %74, ptr noundef %12, i32 noundef 16) #7
  %76 = trunc i64 %75 to i32
  store i32 %76, ptr %13, align 4, !tbaa !15
  %77 = load ptr, ptr %12, align 8, !tbaa !3
  %78 = load ptr, ptr %7, align 8, !tbaa !3
  %79 = icmp ule ptr %77, %78
  br i1 %79, label %113, label %80

80:                                               ; preds = %73
  %81 = load ptr, ptr %12, align 8, !tbaa !3
  %82 = load i8, ptr %81, align 1, !tbaa !8
  %83 = sext i8 %82 to i32
  %84 = icmp eq i32 %83, 32
  br i1 %84, label %110, label %85

85:                                               ; preds = %80
  %86 = load ptr, ptr %12, align 8, !tbaa !3
  %87 = load i8, ptr %86, align 1, !tbaa !8
  %88 = sext i8 %87 to i32
  %89 = icmp eq i32 %88, 9
  br i1 %89, label %110, label %90

90:                                               ; preds = %85
  %91 = load ptr, ptr %12, align 8, !tbaa !3
  %92 = load i8, ptr %91, align 1, !tbaa !8
  %93 = sext i8 %92 to i32
  %94 = icmp eq i32 %93, 13
  br i1 %94, label %110, label %95

95:                                               ; preds = %90
  %96 = load ptr, ptr %12, align 8, !tbaa !3
  %97 = load i8, ptr %96, align 1, !tbaa !8
  %98 = sext i8 %97 to i32
  %99 = icmp eq i32 %98, 10
  br i1 %99, label %110, label %100

100:                                              ; preds = %95
  %101 = load ptr, ptr %12, align 8, !tbaa !3
  %102 = load i8, ptr %101, align 1, !tbaa !8
  %103 = sext i8 %102 to i32
  %104 = icmp ne i32 %103, 59
  br i1 %104, label %105, label %110

105:                                              ; preds = %100
  %106 = load ptr, ptr %12, align 8, !tbaa !3
  %107 = load i8, ptr %106, align 1, !tbaa !8
  %108 = sext i8 %107 to i32
  %109 = icmp ne i32 %108, 0
  br i1 %109, label %113, label %110

110:                                              ; preds = %105, %100, %95, %90, %85, %80
  %111 = load i32, ptr %13, align 4, !tbaa !15
  %112 = icmp uge i32 %111, 1114112
  br i1 %112, label %113, label %115

113:                                              ; preds = %110, %105, %73
  %114 = load ptr, ptr %11, align 8, !tbaa !17
  store i32 9, ptr %114, align 4, !tbaa !18
  store i32 0, ptr %6, align 4
  store i32 1, ptr %15, align 4
  br label %171

115:                                              ; preds = %110
  %116 = load ptr, ptr %10, align 8, !tbaa !26
  %117 = icmp ne ptr %116, null
  br i1 %117, label %118, label %121

118:                                              ; preds = %115
  %119 = load i32, ptr %13, align 4, !tbaa !15
  %120 = load ptr, ptr %10, align 8, !tbaa !26
  store i32 %119, ptr %120, align 4, !tbaa !15
  store ptr null, ptr %10, align 8, !tbaa !26
  br label %121

121:                                              ; preds = %118, %115
  %122 = load i32, ptr %14, align 4, !tbaa !15
  %123 = load i32, ptr %13, align 4, !tbaa !15
  %124 = icmp ule i32 %123, 65535
  %125 = select i1 %124, i32 1, i32 2
  %126 = add nsw i32 %122, %125
  %127 = load i32, ptr %9, align 4, !tbaa !15
  %128 = icmp sle i32 %126, %127
  br i1 %128, label %129, label %163

129:                                              ; preds = %121
  br label %130

130:                                              ; preds = %129
  %131 = load i32, ptr %13, align 4, !tbaa !15
  %132 = icmp ule i32 %131, 65535
  br i1 %132, label %133, label %141

133:                                              ; preds = %130
  %134 = load i32, ptr %13, align 4, !tbaa !15
  %135 = trunc i32 %134 to i16
  %136 = load ptr, ptr %8, align 8, !tbaa !29
  %137 = load i32, ptr %14, align 4, !tbaa !15
  %138 = add nsw i32 %137, 1
  store i32 %138, ptr %14, align 4, !tbaa !15
  %139 = sext i32 %137 to i64
  %140 = getelementptr inbounds i16, ptr %136, i64 %139
  store i16 %135, ptr %140, align 2, !tbaa !31
  br label %160

141:                                              ; preds = %130
  %142 = load i32, ptr %13, align 4, !tbaa !15
  %143 = lshr i32 %142, 10
  %144 = add i32 %143, 55232
  %145 = trunc i32 %144 to i16
  %146 = load ptr, ptr %8, align 8, !tbaa !29
  %147 = load i32, ptr %14, align 4, !tbaa !15
  %148 = add nsw i32 %147, 1
  store i32 %148, ptr %14, align 4, !tbaa !15
  %149 = sext i32 %147 to i64
  %150 = getelementptr inbounds i16, ptr %146, i64 %149
  store i16 %145, ptr %150, align 2, !tbaa !31
  %151 = load i32, ptr %13, align 4, !tbaa !15
  %152 = and i32 %151, 1023
  %153 = or i32 %152, 56320
  %154 = trunc i32 %153 to i16
  %155 = load ptr, ptr %8, align 8, !tbaa !29
  %156 = load i32, ptr %14, align 4, !tbaa !15
  %157 = add nsw i32 %156, 1
  store i32 %157, ptr %14, align 4, !tbaa !15
  %158 = sext i32 %156 to i64
  %159 = getelementptr inbounds i16, ptr %155, i64 %158
  store i16 %154, ptr %159, align 2, !tbaa !31
  br label %160

160:                                              ; preds = %141, %133
  br label %161

161:                                              ; preds = %160
  br label %162

162:                                              ; preds = %161
  br label %169

163:                                              ; preds = %121
  %164 = load i32, ptr %13, align 4, !tbaa !15
  %165 = icmp ule i32 %164, 65535
  %166 = select i1 %165, i32 1, i32 2
  %167 = load i32, ptr %14, align 4, !tbaa !15
  %168 = add nsw i32 %167, %166
  store i32 %168, ptr %14, align 4, !tbaa !15
  br label %169

169:                                              ; preds = %163, %162
  %170 = load ptr, ptr %12, align 8, !tbaa !3
  store ptr %170, ptr %7, align 8, !tbaa !3
  br label %41, !llvm.loop !33

171:                                              ; preds = %113, %71, %33, %20
  call void @llvm.lifetime.end.p0(i64 4, ptr %14) #7
  call void @llvm.lifetime.end.p0(i64 4, ptr %13) #7
  call void @llvm.lifetime.end.p0(i64 8, ptr %12) #7
  %172 = load i32, ptr %6, align 4
  ret i32 %172
}