; Function Attrs: mustprogress nofree nounwind uwtable
define i32 @u_parseString(ptr noundef %0, ptr noundef writeonly %1, i32 noundef %2, ptr noundef writeonly %3, ptr noundef captures(none) %4) local_unnamed_addr #6 {
  %6 = alloca ptr, align 8
  call void @llvm.lifetime.start.p0(i64 8, ptr nonnull %6) #9
  %7 = load i32, ptr %4, align 4, !tbaa !9
  %8 = icmp slt i32 %7, 1
  br i1 %8, label %9, label %65

9:                                                ; preds = %5
  %10 = icmp eq ptr %0, null
  %11 = icmp slt i32 %2, 0
  %or.cond = or i1 %10, %11
  br i1 %or.cond, label %15, label %12

12:                                               ; preds = %9
  %13 = icmp ne i32 %2, 0
  %14 = icmp eq ptr %1, null
  %or.cond3 = and i1 %14, %13
  br i1 %or.cond3, label %15, label %16

15:                                               ; preds = %12, %9
  store i32 1, ptr %4, align 4, !tbaa !9
  br label %65

16:                                               ; preds = %12
  %.not61 = icmp eq ptr %3, null
  br i1 %.not61, label %.preheader, label %17

17:                                               ; preds = %16
  store i32 -1, ptr %3, align 4, !tbaa !18
  br label %.preheader

.preheader:                                       ; preds = %17, %16
  br label %18

18:                                               ; preds = %.backedge, %.preheader
  %.050 = phi ptr [ %3, %.preheader ], [ null, %.backedge ]
  %.049 = phi ptr [ %0, %.preheader ], [ %34, %.backedge ]
  %.0 = phi i32 [ 0, %.preheader ], [ %.0.be, %.backedge ]
  br label %19

19:                                               ; preds = %.critedge.i, %18
  %.0.i = phi ptr [ %.049, %18 ], [ %21, %.critedge.i ]
  %20 = load i8, ptr %.0.i, align 1, !tbaa !3
  switch i8 %20, label %31 [
    i8 32, label %.critedge.i
    i8 9, label %.critedge.i
    i8 13, label %.critedge.i
    i8 10, label %.critedge.i
    i8 59, label %22
    i8 0, label %22
  ]

.critedge.i:                                      ; preds = %19, %19, %19, %19
  %21 = getelementptr inbounds nuw i8, ptr %.0.i, i64 1
  br label %19, !llvm.loop !6

22:                                               ; preds = %19, %19
  %23 = icmp slt i32 %.0, %2
  br i1 %23, label %24, label %27

24:                                               ; preds = %22
  %25 = sext i32 %.0 to i64
  %26 = getelementptr inbounds i16, ptr %1, i64 %25
  store i16 0, ptr %26, align 2, !tbaa !21
  br label %65

27:                                               ; preds = %22
  %28 = icmp eq i32 %.0, %2
  br i1 %28, label %29, label %30

29:                                               ; preds = %27
  store i32 -124, ptr %4, align 4, !tbaa !9
  br label %65

30:                                               ; preds = %27
  store i32 15, ptr %4, align 4, !tbaa !9
  br label %65

31:                                               ; preds = %19
  %32 = call i64 @strtoul(ptr noundef nonnull %.0.i, ptr noundef nonnull %6, i32 noundef 16) #9
  %33 = trunc i64 %32 to i32
  %34 = load ptr, ptr %6, align 8, !tbaa !14
  %.not62 = icmp ugt ptr %34, %.0.i
  br i1 %.not62, label %35, label %41

35:                                               ; preds = %31
  %36 = load i8, ptr %34, align 1, !tbaa !3
  switch i8 %36, label %37 [
    i8 32, label %40
    i8 9, label %40
    i8 13, label %40
    i8 10, label %40
    i8 59, label %40
  ]

37:                                               ; preds = %35
  %38 = icmp ne i8 %36, 0
  %39 = icmp ugt i32 %33, 1114111
  %or.cond5 = select i1 %38, i1 true, i1 %39
  br i1 %or.cond5, label %41, label %42

40:                                               ; preds = %35, %35, %35, %35, %35
  %.old4 = icmp ugt i32 %33, 1114111
  br i1 %.old4, label %41, label %42

41:                                               ; preds = %40, %37, %31
  store i32 9, ptr %4, align 4, !tbaa !9
  br label %65

42:                                               ; preds = %37, %40
  %.not64 = icmp eq ptr %.050, null
  br i1 %.not64, label %44, label %43

43:                                               ; preds = %42
  store i32 %33, ptr %.050, align 4, !tbaa !18
  br label %44

44:                                               ; preds = %43, %42
  %45 = icmp samesign ult i32 %33, 65536
  %46 = select i1 %45, i32 1, i32 2
  %47 = add nsw i32 %46, %.0
  %.not65 = icmp sgt i32 %47, %2
  br i1 %.not65, label %.backedge, label %48

.backedge:                                        ; preds = %44, %49, %54
  %.0.be = phi i32 [ %47, %44 ], [ %51, %49 ], [ %63, %54 ]
  br label %18, !llvm.loop !23

48:                                               ; preds = %44
  br i1 %45, label %49, label %54

49:                                               ; preds = %48
  %50 = trunc i64 %32 to i16
  %51 = add nsw i32 %.0, 1
  %52 = sext i32 %.0 to i64
  %53 = getelementptr inbounds i16, ptr %1, i64 %52
  store i16 %50, ptr %53, align 2, !tbaa !21
  br label %.backedge

54:                                               ; preds = %48
  %55 = lshr i64 %32, 10
  %56 = trunc i64 %55 to i16
  %57 = add i16 %56, -10304
  %58 = sext i32 %.0 to i64
  %59 = getelementptr inbounds i16, ptr %1, i64 %58
  store i16 %57, ptr %59, align 2, !tbaa !21
  %60 = trunc i64 %32 to i16
  %61 = and i16 %60, 1023
  %62 = or disjoint i16 %61, -9216
  %63 = add nsw i32 %.0, 2
  %64 = getelementptr i8, ptr %59, i64 2
  store i16 %62, ptr %64, align 2, !tbaa !21
  br label %.backedge

65:                                               ; preds = %24, %30, %29, %5, %41, %15
  %.048 = phi i32 [ 0, %15 ], [ 0, %41 ], [ 0, %5 ], [ %2, %29 ], [ %.0, %30 ], [ %.0, %24 ]
  call void @llvm.lifetime.end.p0(i64 8, ptr nonnull %6) #9
  ret i32 %.048
}